target datalayout = "e-m:e-p270:32:32-p271:32:32-p272:64:64-i64:64-i128:128-f80:128-n8:16:32:64-S128"
target triple = "x86_64-pc-linux-gnu"

%struct.SetExprState = type { i32, ptr, ptr, ptr, %struct.FmgrInfo, ptr, ptr, ptr, i8, i8, i8, i8, ptr }
%struct.FmgrInfo = type { ptr, i32, i16, i8, i8, i8, ptr, ptr, ptr }
%struct.Node = type { i32 }
%struct.FuncExpr = type { %struct.Expr, i32, i32, i8, i8, i32, i32, i32, ptr, i32 }
%struct.Expr = type { i32 }
%struct.ExprContext = type { i32, ptr, ptr, ptr, ptr, ptr, ptr, ptr, ptr, ptr, i64, i8, i64, i8, ptr, ptr, ptr, ptr }
%struct.OpExpr = type { %struct.Expr, i32, i32, i32, i8, i32, i32, ptr, i32 }

@.str.2 = private unnamed_addr constant [10 x i8] c"execSRF.c\00", align 1
@.str.6 = private unnamed_addr constant [27 x i8] c"unrecognized node type: %d\00", align 1
@__func__.ExecInitFunctionResultSet = private unnamed_addr constant [26 x i8] c"ExecInitFunctionResultSet\00", align 1

; Function Attrs: inlinehint nounwind uwtable
define internal ptr @newNode(i64 noundef %0, i32 noundef %1) #2 {
  %3 = alloca i64, align 8
  %4 = alloca i32, align 4
  %5 = alloca ptr, align 8
  store i64 %0, ptr %3, align 8
  store i32 %1, ptr %4, align 4
  call void @llvm.lifetime.start.p0(i64 8, ptr %5) #7
  %6 = load i64, ptr %3, align 8
  %7 = call ptr @palloc0(i64 noundef %6)
  store ptr %7, ptr %5, align 8
  %8 = load i32, ptr %4, align 4
  %9 = load ptr, ptr %5, align 8
  %10 = getelementptr inbounds nuw %struct.Node, ptr %9, i32 0, i32 0
  store i32 %8, ptr %10, align 4
  %11 = load ptr, ptr %5, align 8
  call void @llvm.lifetime.end.p0(i64 8, ptr %5) #7
  ret ptr %11
}

; Function Attrs: nounwind uwtable
define dso_local ptr @ExecInitFunctionResultSet(ptr noundef %0, ptr noundef %1, ptr noundef %2) #0 {
  %4 = alloca ptr, align 8
  %5 = alloca ptr, align 8
  %6 = alloca ptr, align 8
  %7 = alloca ptr, align 8
  %8 = alloca ptr, align 8
  %9 = alloca ptr, align 8
  store ptr %0, ptr %4, align 8
  store ptr %1, ptr %5, align 8
  store ptr %2, ptr %6, align 8
  call void @llvm.lifetime.start.p0(i64 8, ptr %7) #7
  %10 = call ptr @newNode(i64 noundef 120, i32 noundef 390)
  store ptr %10, ptr %7, align 8
  %11 = load ptr, ptr %7, align 8
  %12 = getelementptr inbounds nuw %struct.SetExprState, ptr %11, i32 0, i32 9
  store i8 1, ptr %12, align 1
  %13 = load ptr, ptr %4, align 8
  %14 = load ptr, ptr %7, align 8
  %15 = getelementptr inbounds nuw %struct.SetExprState, ptr %14, i32 0, i32 1
  store ptr %13, ptr %15, align 8
  %16 = load ptr, ptr %7, align 8
  %17 = getelementptr inbounds nuw %struct.SetExprState, ptr %16, i32 0, i32 4
  %18 = getelementptr inbounds nuw %struct.FmgrInfo, ptr %17, i32 0, i32 1
  store i32 0, ptr %18, align 8
  %19 = load ptr, ptr %4, align 8
  %20 = getelementptr inbounds nuw %struct.Node, ptr %19, i32 0, i32 0
  %21 = load i32, ptr %20, align 4
  %22 = icmp eq i32 %21, 15
  br i1 %22, label %23, label %44

23:                                               ; preds = %3
  call void @llvm.lifetime.start.p0(i64 8, ptr %8) #7
  %24 = load ptr, ptr %4, align 8
  store ptr %24, ptr %8, align 8
  %25 = load ptr, ptr %8, align 8
  %26 = getelementptr inbounds nuw %struct.FuncExpr, ptr %25, i32 0, i32 8
  %27 = load ptr, ptr %26, align 8
  %28 = load ptr, ptr %6, align 8
  %29 = call ptr @ExecInitExprList(ptr noundef %27, ptr noundef %28)
  %30 = load ptr, ptr %7, align 8
  %31 = getelementptr inbounds nuw %struct.SetExprState, ptr %30, i32 0, i32 2
  store ptr %29, ptr %31, align 8
  %32 = load ptr, ptr %8, align 8
  %33 = getelementptr inbounds nuw %struct.FuncExpr, ptr %32, i32 0, i32 1
  %34 = load i32, ptr %33, align 4
  %35 = load ptr, ptr %8, align 8
  %36 = getelementptr inbounds nuw %struct.FuncExpr, ptr %35, i32 0, i32 7
  %37 = load i32, ptr %36, align 8
  %38 = load ptr, ptr %4, align 8
  %39 = load ptr, ptr %7, align 8
  %40 = load ptr, ptr %6, align 8
  %41 = load ptr, ptr %5, align 8
  %42 = getelementptr inbounds nuw %struct.ExprContext, ptr %41, i32 0, i32 4
  %43 = load ptr, ptr %42, align 8
  call void @init_sexpr(i32 noundef %34, i32 noundef %37, ptr noundef %38, ptr noundef %39, ptr noundef %40, ptr noundef %43, i1 noundef zeroext true, i1 noundef zeroext true)
  call void @llvm.lifetime.end.p0(i64 8, ptr %8) #7
  br label %85

44:                                               ; preds = %3
  %45 = load ptr, ptr %4, align 8
  %46 = getelementptr inbounds nuw %struct.Node, ptr %45, i32 0, i32 0
  %47 = load i32, ptr %46, align 4
  %48 = icmp eq i32 %47, 17
  br i1 %48, label %49, label %70

49:                                               ; preds = %44
  call void @llvm.lifetime.start.p0(i64 8, ptr %9) #7
  %50 = load ptr, ptr %4, align 8
  store ptr %50, ptr %9, align 8
  %51 = load ptr, ptr %9, align 8
  %52 = getelementptr inbounds nuw %struct.OpExpr, ptr %51, i32 0, i32 7
  %53 = load ptr, ptr %52, align 8
  %54 = load ptr, ptr %6, align 8
  %55 = call ptr @ExecInitExprList(ptr noundef %53, ptr noundef %54)
  %56 = load ptr, ptr %7, align 8
  %57 = getelementptr inbounds nuw %struct.SetExprState, ptr %56, i32 0, i32 2
  store ptr %55, ptr %57, align 8
  %58 = load ptr, ptr %9, align 8
  %59 = getelementptr inbounds nuw %struct.OpExpr, ptr %58, i32 0, i32 2
  %60 = load i32, ptr %59, align 8
  %61 = load ptr, ptr %9, align 8
  %62 = getelementptr inbounds nuw %struct.OpExpr, ptr %61, i32 0, i32 6
  %63 = load i32, ptr %62, align 8
  %64 = load ptr, ptr %4, align 8
  %65 = load ptr, ptr %7, align 8
  %66 = load ptr, ptr %6, align 8
  %67 = load ptr, ptr %5, align 8
  %68 = getelementptr inbounds nuw %struct.ExprContext, ptr %67, i32 0, i32 4
  %69 = load ptr, ptr %68, align 8
  call void @init_sexpr(i32 noundef %60, i32 noundef %63, ptr noundef %64, ptr noundef %65, ptr noundef %66, ptr noundef %69, i1 noundef zeroext true, i1 noundef zeroext true)
  call void @llvm.lifetime.end.p0(i64 8, ptr %9) #7
  br label %84

70:                                               ; preds = %44
  br label %71

71:                                               ; preds = %70
  br i1 true, label %72, label %74

72:                                               ; preds = %71
  %73 = call zeroext i1 @errstart_cold(i32 noundef 21, ptr noundef null) #8
  br i1 %73, label %76, label %81

74:                                               ; preds = %71
  %75 = call zeroext i1 @errstart(i32 noundef 21, ptr noundef null)
  br i1 %75, label %76, label %81

76:                                               ; preds = %74, %72
  %77 = load ptr, ptr %4, align 8
  %78 = getelementptr inbounds nuw %struct.Node, ptr %77, i32 0, i32 0
  %79 = load i32, ptr %78, align 4
  %80 = call i32 (ptr, ...) @errmsg_internal(ptr noundef @.str.6, i32 noundef %79)
  call void @errfinish(ptr noundef @.str.2, i32 noundef 475, ptr noundef @__func__.ExecInitFunctionResultSet)
  br label %81

81:                                               ; preds = %76, %74, %72
  unreachable

82:                                               ; No predecessors!
  br label %83

83:                                               ; preds = %82
  br label %84

84:                                               ; preds = %83, %49
  br label %85

85:                                               ; preds = %84, %23
  %86 = load ptr, ptr %7, align 8
  call void @llvm.lifetime.end.p0(i64 8, ptr %7) #7
  ret ptr %86
}