; Function Attrs: nounwind uwtable
define dso_local noundef ptr @ExecInitFunctionResultSet(ptr noundef %0, ptr noundef readonly captures(none) %1, ptr noundef %2) local_unnamed_addr #0 {
  %4 = tail call noundef ptr @palloc0(i64 noundef 120) #6
  store i32 390, ptr %4, align 4
  %5 = getelementptr inbounds nuw i8, ptr %4, i64 105
  store i8 1, ptr %5, align 1
  %6 = getelementptr inbounds nuw i8, ptr %4, i64 8
  store ptr %0, ptr %6, align 8
  %7 = getelementptr inbounds nuw i8, ptr %4, i64 40
  store i32 0, ptr %7, align 8
  %8 = load i32, ptr %0, align 4
  switch i32 %8, label %10 [
    i32 15, label %14
    i32 17, label %9
  ]

9:                                                ; preds = %3
  br label %14

10:                                               ; preds = %3
  %11 = tail call zeroext i1 @errstart_cold(i32 noundef 21, ptr noundef null) #7
  tail call void @llvm.assume(i1 %11)
  %12 = load i32, ptr %0, align 4
  %13 = tail call i32 (ptr, ...) @errmsg_internal(ptr noundef nonnull @.str.6, i32 noundef %12) #6
  tail call void @errfinish(ptr noundef nonnull @.str.2, i32 noundef 475, ptr noundef nonnull @__func__.ExecInitFunctionResultSet) #6
  unreachable

14:                                               ; preds = %3, %9
  %.sink32 = phi i64 [ 8, %9 ], [ 4, %3 ]
  %15 = getelementptr inbounds nuw i8, ptr %0, i64 32
  %16 = load ptr, ptr %15, align 8
  %17 = tail call ptr @ExecInitExprList(ptr noundef %16, ptr noundef %2) #6
  %18 = getelementptr inbounds nuw i8, ptr %4, i64 16
  store ptr %17, ptr %18, align 8
  %19 = getelementptr inbounds nuw i8, ptr %0, i64 %.sink32
  %.sink = load i32, ptr %19, align 4
  %20 = getelementptr inbounds nuw i8, ptr %0, i64 24
  %21 = load i32, ptr %20, align 8
  %22 = getelementptr inbounds nuw i8, ptr %1, i64 32
  %23 = load ptr, ptr %22, align 8
  tail call fastcc void @init_sexpr(i32 noundef %.sink, i32 noundef %21, ptr noundef nonnull %0, ptr noundef nonnull %4, ptr noundef %2, ptr noundef %23, i1 noundef zeroext true, i1 noundef zeroext true)
  ret ptr %4
}